; Function Attrs: mustprogress nounwind uwtable
define hidden noundef zeroext i1 @_ZN7PhiNode20try_clean_memory_phiEP12PhaseIterGVN(ptr noundef nonnull align 8 dereferenceable(88) %0, ptr noundef %1) local_unnamed_addr #2 align 2 {
  %3 = getelementptr inbounds i8, ptr %0, i64 56
  %4 = load ptr, ptr %3, align 8
  %5 = load ptr, ptr @_ZN4Type6MEMORYE, align 8
  %.not = icmp eq ptr %4, %5
  br i1 %.not, label %6, label %.loopexit

6:                                                ; preds = %2
  %7 = getelementptr inbounds i8, ptr %0, i64 8
  %8 = load ptr, ptr %7, align 8
  %9 = load ptr, ptr %8, align 8
  %10 = getelementptr inbounds i8, ptr %9, i64 8
  br label %11

11:                                               ; preds = %6, %40
  %indvars.iv = phi i64 [ 1, %6 ], [ %indvars.iv.next, %40 ]
  %12 = getelementptr inbounds ptr, ptr %8, i64 %indvars.iv
  %13 = load ptr, ptr %12, align 8
  %.not19 = icmp eq ptr %13, null
  br i1 %.not19, label %40, label %14

14:                                               ; preds = %11
  %15 = getelementptr inbounds i8, ptr %13, i64 44
  %16 = load i32, ptr %15, align 4
  %17 = and i32 %16, 255
  %18 = icmp eq i32 %17, 128
  br i1 %18, label %19, label %40

19:                                               ; preds = %14
  %20 = load ptr, ptr %10, align 8
  %21 = getelementptr inbounds ptr, ptr %20, i64 %indvars.iv
  %22 = load ptr, ptr %21, align 8
  %23 = getelementptr inbounds i8, ptr %22, i64 32
  %24 = load i32, ptr %23, align 8
  %25 = icmp eq i32 %24, 1
  br i1 %25, label %26, label %40

26:                                               ; preds = %19
  %27 = sub nuw nsw i64 3, %indvars.iv
  %28 = getelementptr inbounds ptr, ptr %8, i64 %27
  %29 = load ptr, ptr %28, align 8
  %.not20 = icmp eq ptr %29, null
  br i1 %.not20, label %40, label %30

30:                                               ; preds = %26
  %31 = getelementptr inbounds i8, ptr %13, i64 8
  %32 = load ptr, ptr %31, align 8
  %33 = getelementptr inbounds i8, ptr %32, i64 16
  %34 = load ptr, ptr %33, align 8
  %35 = icmp eq ptr %29, %34
  br i1 %35, label %36, label %40

36:                                               ; preds = %30
  tail call void @_ZN12PhaseIterGVN21add_users_to_worklistEP4Node(ptr noundef nonnull align 8 dereferenceable(2416) %1, ptr noundef nonnull %0) #10
  %37 = getelementptr inbounds i8, ptr %1, i64 32
  %38 = load ptr, ptr %37, align 8
  %39 = tail call noundef zeroext i1 @_ZN8NodeHash11hash_deleteEPK4Node(ptr noundef nonnull align 8 dereferenceable(40) %38, ptr noundef nonnull %0) #10
  tail call void @_ZN12PhaseIterGVN12subsume_nodeEP4NodeS1_(ptr noundef nonnull align 8 dereferenceable(2416) %1, ptr noundef nonnull %0, ptr noundef nonnull %13) #10
  br label %.loopexit

40:                                               ; preds = %11, %14, %19, %30, %26
  %indvars.iv.next = add nuw nsw i64 %indvars.iv, 1
  %exitcond.not = icmp eq i64 %indvars.iv.next, 3
  br i1 %exitcond.not, label %.loopexit, label %11, !llvm.loop !14

.loopexit:                                        ; preds = %40, %2, %36
  %.0 = phi i1 [ true, %36 ], [ false, %2 ], [ false, %40 ]
  ret i1 %.0
}